; Function Attrs: nofree norecurse nosync nounwind memory(argmem: readwrite) uwtable
define range(i32 -173, 1) i32 @wc_ecc_set_curve(ptr noundef %key, i32 noundef %keysize, i32 noundef %curve_id) local_unnamed_addr #1 {
entry:
  %cmp = icmp eq ptr %key, null
  br i1 %cmp, label %return, label %lor.lhs.false

lor.lhs.false:                                    ; preds = %entry
  %cmp1 = icmp slt i32 %keysize, 1
  %cmp2 = icmp slt i32 %curve_id, 0
  %or.cond = and i1 %cmp1, %cmp2
  br i1 %or.cond, label %return, label %if.end

if.end:                                           ; preds = %lor.lhs.false
  %cmp3 = icmp sgt i32 %keysize, 66
  br i1 %cmp3, label %return, label %if.end5

if.end5:                                          ; preds = %if.end
  %idx = getelementptr inbounds nuw i8, ptr %key, i64 4
  %0 = load i32, ptr %idx, align 4
  %cmp6.not = icmp eq i32 %0, -1
  br i1 %cmp6.not, label %return, label %if.then7

if.then7:                                         ; preds = %if.end5
  store i32 0, ptr %idx, align 4
  %dp = getelementptr inbounds nuw i8, ptr %key, i64 16
  store ptr null, ptr %dp, align 8
  %cmp10 = icmp sgt i32 %curve_id, 0
  br i1 %cmp10, label %for.body.us, label %if.then7.split

for.body.us:                                      ; preds = %if.then7, %for.inc.us
  %indvars.iv33 = phi i64 [ %indvars.iv.next34, %for.inc.us ], [ 0, %if.then7 ]
  %arrayidx19.us = phi ptr [ %arrayidx.us, %for.inc.us ], [ @ecc_sets, %if.then7 ]
  %id.us = getelementptr inbounds nuw i8, ptr %arrayidx19.us, i64 4
  %1 = load i32, ptr %id.us, align 4
  %cmp14.us = icmp eq i32 %curve_id, %1
  br i1 %cmp14.us, label %if.end29.loopexit, label %for.inc.us

for.inc.us:                                       ; preds = %for.body.us
  %indvars.iv.next34 = add nuw nsw i64 %indvars.iv33, 1
  %arrayidx.us = getelementptr inbounds nuw [6 x %struct.ecc_set_type], ptr @ecc_sets, i64 0, i64 %indvars.iv.next34
  %exitcond36 = icmp eq i64 %indvars.iv.next34, 5
  br i1 %exitcond36, label %return, label %for.body.us, !llvm.loop !6

if.then7.split:                                   ; preds = %if.then7
  %cmp20.not23 = icmp sgt i32 %keysize, 28
  br i1 %cmp20.not23, label %for.inc, label %if.end29

for.body:                                         ; preds = %for.inc
  %indvars.iv.next = add nuw nsw i64 %indvars.iv, 1
  %arrayidx = getelementptr inbounds nuw [6 x %struct.ecc_set_type], ptr @ecc_sets, i64 0, i64 %indvars.iv.next
  %2 = load i32, ptr %arrayidx, align 8
  %cmp20.not = icmp sgt i32 %keysize, %2
  br i1 %cmp20.not, label %for.inc, label %if.end29.loopexit27, !llvm.loop !6

for.inc:                                          ; preds = %if.then7.split, %for.body
  %indvars.iv = phi i64 [ %indvars.iv.next, %for.body ], [ 0, %if.then7.split ]
  %exitcond = icmp eq i64 %indvars.iv, 4
  br i1 %exitcond, label %return, label %for.body, !llvm.loop !6

if.end29.loopexit:                                ; preds = %for.body.us
  %3 = trunc nuw nsw i64 %indvars.iv33 to i32
  br label %if.end29

if.end29.loopexit27:                              ; preds = %for.body
  %4 = trunc nuw nsw i64 %indvars.iv.next to i32
  br label %if.end29

if.end29:                                         ; preds = %if.end29.loopexit27, %if.end29.loopexit, %if.then7.split
  %.us-phi = phi i32 [ 0, %if.then7.split ], [ %3, %if.end29.loopexit ], [ %4, %if.end29.loopexit27 ]
  %.us-phi20 = phi ptr [ @ecc_sets, %if.then7.split ], [ %arrayidx19.us, %if.end29.loopexit ], [ %arrayidx, %if.end29.loopexit27 ]
  store i32 %.us-phi, ptr %idx, align 4
  store ptr %.us-phi20, ptr %dp, align 8
  br label %return

return:                                           ; preds = %for.inc, %for.inc.us, %if.end5, %if.end29, %if.end, %entry, %lor.lhs.false
  %retval.0 = phi i32 [ -173, %lor.lhs.false ], [ -173, %entry ], [ -170, %if.end ], [ 0, %if.end29 ], [ 0, %if.end5 ], [ -172, %for.inc.us ], [ -172, %for.inc ]
  ret i32 %retval.0
}